(dp0
S' '
p1
I25
sS'A'
p2
I23
sS'C'
p3
I11
sS'B'
p4
I17
sS'E'
p5
I7
sS'D'
p6
I4
sS'G'
p7
I18
sS'F'
p8
I21
sS'I'
p9
I26
sS'H'
p10
I15
sS'K'
p11
I20
sS'J'
p12
I22
sS'M'
p13
I6
sS'L'
p14
I9
sS'O'
p15
I13
sS'N'
p16
I19
sS'Q'
p17
I12
sS'P'
p18
I1
sS'S'
p19
I2
sS'R'
p20
I0
sS'U'
p21
I24
sS'T'
p22
I14
sS'W'
p23
I10
sS'V'
p24
I16
sS'Y'
p25
I5
sS'X'
p26
I3
sS'Z'
p27
I8
s.